; Function Attrs: mustprogress uwtable
define void @grpc_auth_context_add_cstring_property(ptr noundef %ctx, ptr noundef %name, ptr noundef %value) local_unnamed_addr #4 personality ptr @__gxx_personality_v0 {
entry:
  %0 = load atomic i8, ptr getelementptr inbounds (%"class.grpc_core::TraceFlag", ptr @grpc_api_trace, i64 0, i32 2, i32 0, i32 0) monotonic, align 8
  %1 = and i8 %0, 1
  %tobool.i.i.i.not = icmp eq i8 %1, 0
  br i1 %tobool.i.i.i.not, label %if.end, label %if.then

if.then:                                          ; preds = %entry
  tail call void (ptr, i32, i32, ptr, ...) @gpr_log(ptr noundef nonnull @.str, i32 noundef 272, i32 noundef 1, ptr noundef nonnull @.str.21, ptr noundef %ctx, ptr noundef %name, ptr noundef %value)
  br label %if.end

if.end:                                           ; preds = %if.then, %entry
  %count.i.i = getelementptr inbounds i8, ptr %ctx, i64 24
  %2 = load i64, ptr %count.i.i, align 8
  %capacity.i.i = getelementptr inbounds i8, ptr %ctx, i64 32
  %3 = load i64, ptr %capacity.i.i, align 8
  %cmp.i.i = icmp eq i64 %2, %3
  %properties_.i.i = getelementptr inbounds i8, ptr %ctx, i64 16
  br i1 %cmp.i.i, label %if.then.i.i, label %entry._ZN17grpc_auth_context15ensure_capacityEv.exit_crit_edge.i

entry._ZN17grpc_auth_context15ensure_capacityEv.exit_crit_edge.i: ; preds = %if.end
  %.pre.i = load ptr, ptr %properties_.i.i, align 8
  br label %_ZN17grpc_auth_context20add_cstring_propertyEPKcS1_.exit

if.then.i.i:                                      ; preds = %if.end
  %add.i.i = add i64 %2, 8
  %mul.i.i = shl i64 %2, 1
  %.sroa.speculated.i.i = tail call i64 @llvm.umax.i64(i64 %add.i.i, i64 %mul.i.i)
  store i64 %.sroa.speculated.i.i, ptr %capacity.i.i, align 8
  %4 = load ptr, ptr %properties_.i.i, align 8
  %mul13.i.i = mul i64 %.sroa.speculated.i.i, 24
  %call14.i.i = tail call ptr @gpr_realloc(ptr noundef %4, i64 noundef %mul13.i.i)
  store ptr %call14.i.i, ptr %properties_.i.i, align 8
  %.pre4.i = load i64, ptr %count.i.i, align 8
  br label %_ZN17grpc_auth_context20add_cstring_propertyEPKcS1_.exit

_ZN17grpc_auth_context20add_cstring_propertyEPKcS1_.exit: ; preds = %entry._ZN17grpc_auth_context15ensure_capacityEv.exit_crit_edge.i, %if.then.i.i
  %5 = phi i64 [ %2, %entry._ZN17grpc_auth_context15ensure_capacityEv.exit_crit_edge.i ], [ %.pre4.i, %if.then.i.i ]
  %6 = phi ptr [ %.pre.i, %entry._ZN17grpc_auth_context15ensure_capacityEv.exit_crit_edge.i ], [ %call14.i.i, %if.then.i.i ]
  %inc.i = add i64 %5, 1
  store i64 %inc.i, ptr %count.i.i, align 8
  %arrayidx.i = getelementptr inbounds %struct.grpc_auth_property, ptr %6, i64 %5
  %call.i = tail call ptr @gpr_strdup(ptr noundef %name)
  store ptr %call.i, ptr %arrayidx.i, align 8
  %call4.i = tail call ptr @gpr_strdup(ptr noundef %value)
  %value5.i = getelementptr inbounds i8, ptr %arrayidx.i, i64 8
  store ptr %call4.i, ptr %value5.i, align 8
  %call6.i = tail call i64 @strlen(ptr noundef nonnull dereferenceable(1) %value) #25
  %value_length.i = getelementptr inbounds i8, ptr %arrayidx.i, i64 16
  store i64 %call6.i, ptr %value_length.i, align 8
  ret void
}